target datalayout = "e-m:e-p270:32:32-p271:32:32-p272:64:64-i64:64-i128:128-f80:128-n8:16:32:64-S128"
target triple = "x86_64-pc-linux-gnu"

%struct._zval_struct = type { %union._zend_value, %union.anon, %union.anon.2 }
%union._zend_value = type { i64 }
%union.anon = type { i32 }
%union.anon.2 = type { i32 }
%struct._zend_array = type { %struct._zend_refcounted_h, %union.anon.4, i32, %union.anon.6, i32, i32, i32, i32, i64, ptr }
%struct._zend_refcounted_h = type { i32, %union.anon.3 }
%union.anon.3 = type { i32 }
%union.anon.4 = type { i32 }
%union.anon.6 = type { ptr }
%struct._zend_phpdbg_globals = type { [11 x %struct._zend_array], %struct._zend_array, %struct._zend_array, ptr, ptr, %struct.phpdbg_frame_t, i32, ptr, %struct.phpdbg_lexer_data, ptr, %struct.sigaction, i32, i64, %struct.phpdbg_btree, %struct.phpdbg_btree, %struct._zend_array, %struct._zend_array, %struct._zend_array, %struct._zend_array, ptr, ptr, ptr, i8, ptr, ptr, ptr, i64, ptr, %struct._zval_struct, i32, i32, i8, i8, ptr, ptr, ptr, %struct._zend_array, ptr, ptr, ptr, [3 x %struct.anon.9], ptr, %struct.anon.10, i64, [2 x ptr], [3 x ptr], ptr, i8, ptr, ptr, [500 x i8], i32, %struct.phpdbg_signal_safe_mem, ptr, i64, ptr, i64 }
%struct.phpdbg_frame_t = type { i32, ptr, ptr }
%struct.phpdbg_lexer_data = type { i32, ptr, ptr, ptr, ptr, i32 }
%struct.sigaction = type { %union.anon.8, %struct.__sigset_t, i32, ptr }
%union.anon.8 = type { ptr }
%struct.__sigset_t = type { [16 x i64] }
%struct.phpdbg_btree = type { i64, i64, i8, ptr }
%struct.anon.9 = type { i32 }
%struct.anon.10 = type { i8, i32, i32, ptr, i32 }
%struct.phpdbg_signal_safe_mem = type { ptr, i8, ptr, ptr }
%struct._sapi_module_struct = type { ptr, ptr, ptr, ptr, ptr, ptr, ptr, ptr, ptr, ptr, ptr, ptr, ptr, ptr, ptr, ptr, ptr, ptr, ptr, ptr, ptr, ptr, ptr, ptr, i32, i32, ptr, ptr, ptr, ptr, ptr, ptr, i32, ptr, ptr, ptr }

@phpdbg_globals = hidden global %struct._zend_phpdbg_globals zeroinitializer, align 8
@.str.33 = private unnamed_addr constant [1 x i8] zeroinitializer, align 1
@php_import_environment_variables = external global ptr, align 8
@sapi_module = external global %struct._sapi_module_struct, align 8
@.str.83 = private unnamed_addr constant [9 x i8] c"PHP_SELF\00", align 1
@.str.84 = private unnamed_addr constant [12 x i8] c"SCRIPT_NAME\00", align 1
@.str.85 = private unnamed_addr constant [16 x i8] c"SCRIPT_FILENAME\00", align 1
@.str.86 = private unnamed_addr constant [16 x i8] c"PATH_TRANSLATED\00", align 1
@.str.87 = private unnamed_addr constant [14 x i8] c"DOCUMENT_ROOT\00", align 1

; Function Attrs: nounwind uwtable
define internal void @php_sapi_phpdbg_register_vars(ptr noundef %0) #0 {
  %2 = alloca ptr, align 8
  %3 = alloca i64, align 8
  %4 = alloca ptr, align 8
  store ptr %0, ptr %2, align 8, !tbaa !9
  call void @llvm.lifetime.start.p0(i64 8, ptr %3) #22
  call void @llvm.lifetime.start.p0(i64 8, ptr %4) #22
  store ptr @.str.33, ptr %4, align 8, !tbaa !75
  %5 = load ptr, ptr @php_import_environment_variables, align 8, !tbaa !118
  %6 = load ptr, ptr %2, align 8, !tbaa !9
  call void %5(ptr noundef %6)
  %7 = load ptr, ptr getelementptr inbounds nuw (%struct._zend_phpdbg_globals, ptr @phpdbg_globals, i32 0, i32 25), align 8, !tbaa !50
  %8 = icmp ne ptr %7, null
  br i1 %8, label %9, label %43

9:                                                ; preds = %1
  %10 = load i64, ptr getelementptr inbounds nuw (%struct._zend_phpdbg_globals, ptr @phpdbg_globals, i32 0, i32 26), align 8, !tbaa !70
  store i64 %10, ptr %3, align 8, !tbaa !76
  %11 = load ptr, ptr getelementptr inbounds nuw (%struct._sapi_module_struct, ptr @sapi_module, i32 0, i32 30), align 8, !tbaa !277
  %12 = load i64, ptr getelementptr inbounds nuw (%struct._zend_phpdbg_globals, ptr @phpdbg_globals, i32 0, i32 26), align 8, !tbaa !70
  %13 = call i32 %11(i32 noundef 5, ptr noundef @.str.83, ptr noundef getelementptr inbounds nuw (%struct._zend_phpdbg_globals, ptr @phpdbg_globals, i32 0, i32 25), i64 noundef %12, ptr noundef %3)
  %14 = icmp ne i32 %13, 0
  br i1 %14, label %15, label %18

15:                                               ; preds = %9
  %16 = load ptr, ptr getelementptr inbounds nuw (%struct._zend_phpdbg_globals, ptr @phpdbg_globals, i32 0, i32 25), align 8, !tbaa !50
  %17 = load ptr, ptr %2, align 8, !tbaa !9
  call void @php_register_variable(ptr noundef @.str.83, ptr noundef %16, ptr noundef %17)
  br label %18

18:                                               ; preds = %15, %9
  %19 = load ptr, ptr getelementptr inbounds nuw (%struct._sapi_module_struct, ptr @sapi_module, i32 0, i32 30), align 8, !tbaa !277
  %20 = load i64, ptr getelementptr inbounds nuw (%struct._zend_phpdbg_globals, ptr @phpdbg_globals, i32 0, i32 26), align 8, !tbaa !70
  %21 = call i32 %19(i32 noundef 5, ptr noundef @.str.84, ptr noundef getelementptr inbounds nuw (%struct._zend_phpdbg_globals, ptr @phpdbg_globals, i32 0, i32 25), i64 noundef %20, ptr noundef %3)
  %22 = icmp ne i32 %21, 0
  br i1 %22, label %23, label %26

23:                                               ; preds = %18
  %24 = load ptr, ptr getelementptr inbounds nuw (%struct._zend_phpdbg_globals, ptr @phpdbg_globals, i32 0, i32 25), align 8, !tbaa !50
  %25 = load ptr, ptr %2, align 8, !tbaa !9
  call void @php_register_variable(ptr noundef @.str.84, ptr noundef %24, ptr noundef %25)
  br label %26

26:                                               ; preds = %23, %18
  %27 = load ptr, ptr getelementptr inbounds nuw (%struct._sapi_module_struct, ptr @sapi_module, i32 0, i32 30), align 8, !tbaa !277
  %28 = load i64, ptr getelementptr inbounds nuw (%struct._zend_phpdbg_globals, ptr @phpdbg_globals, i32 0, i32 26), align 8, !tbaa !70
  %29 = call i32 %27(i32 noundef 5, ptr noundef @.str.85, ptr noundef getelementptr inbounds nuw (%struct._zend_phpdbg_globals, ptr @phpdbg_globals, i32 0, i32 25), i64 noundef %28, ptr noundef %3)
  %30 = icmp ne i32 %29, 0
  br i1 %30, label %31, label %34

31:                                               ; preds = %26
  %32 = load ptr, ptr getelementptr inbounds nuw (%struct._zend_phpdbg_globals, ptr @phpdbg_globals, i32 0, i32 25), align 8, !tbaa !50
  %33 = load ptr, ptr %2, align 8, !tbaa !9
  call void @php_register_variable(ptr noundef @.str.85, ptr noundef %32, ptr noundef %33)
  br label %34

34:                                               ; preds = %31, %26
  %35 = load ptr, ptr getelementptr inbounds nuw (%struct._sapi_module_struct, ptr @sapi_module, i32 0, i32 30), align 8, !tbaa !277
  %36 = load i64, ptr getelementptr inbounds nuw (%struct._zend_phpdbg_globals, ptr @phpdbg_globals, i32 0, i32 26), align 8, !tbaa !70
  %37 = call i32 %35(i32 noundef 5, ptr noundef @.str.86, ptr noundef getelementptr inbounds nuw (%struct._zend_phpdbg_globals, ptr @phpdbg_globals, i32 0, i32 25), i64 noundef %36, ptr noundef %3)
  %38 = icmp ne i32 %37, 0
  br i1 %38, label %39, label %42

39:                                               ; preds = %34
  %40 = load ptr, ptr getelementptr inbounds nuw (%struct._zend_phpdbg_globals, ptr @phpdbg_globals, i32 0, i32 25), align 8, !tbaa !50
  %41 = load ptr, ptr %2, align 8, !tbaa !9
  call void @php_register_variable(ptr noundef @.str.86, ptr noundef %40, ptr noundef %41)
  br label %42

42:                                               ; preds = %39, %34
  br label %43

43:                                               ; preds = %42, %1
  store i64 0, ptr %3, align 8, !tbaa !76
  %44 = load ptr, ptr getelementptr inbounds nuw (%struct._sapi_module_struct, ptr @sapi_module, i32 0, i32 30), align 8, !tbaa !277
  %45 = load i64, ptr %3, align 8, !tbaa !76
  %46 = call i32 %44(i32 noundef 5, ptr noundef @.str.87, ptr noundef %4, i64 noundef %45, ptr noundef %3)
  %47 = icmp ne i32 %46, 0
  br i1 %47, label %48, label %51

48:                                               ; preds = %43
  %49 = load ptr, ptr %4, align 8, !tbaa !75
  %50 = load ptr, ptr %2, align 8, !tbaa !9
  call void @php_register_variable(ptr noundef @.str.87, ptr noundef %49, ptr noundef %50)
  br label %51

51:                                               ; preds = %48, %43
  call void @llvm.lifetime.end.p0(i64 8, ptr %4) #22
  call void @llvm.lifetime.end.p0(i64 8, ptr %3) #22
  ret void
}