; Function Attrs: nounwind uwtable
define internal void @php_sapi_phpdbg_register_vars(ptr noundef %0) #0 {
  %2 = alloca i64, align 8
  %3 = alloca ptr, align 8
  call void @llvm.lifetime.start.p0(i64 8, ptr nonnull %2) #27
  call void @llvm.lifetime.start.p0(i64 8, ptr nonnull %3) #27
  store ptr @.str.33, ptr %3, align 8, !tbaa !78
  %4 = load ptr, ptr @php_import_environment_variables, align 8, !tbaa !190
  tail call void %4(ptr noundef %0) #27
  %5 = load ptr, ptr getelementptr inbounds nuw (i8, ptr @phpdbg_globals, i64 1344), align 8, !tbaa !47
  %.not = icmp eq ptr %5, null
  br i1 %.not, label %30, label %6

6:                                                ; preds = %1
  %7 = load i64, ptr getelementptr inbounds nuw (i8, ptr @phpdbg_globals, i64 1352), align 8, !tbaa !67
  store i64 %7, ptr %2, align 8, !tbaa !79
  %8 = load ptr, ptr getelementptr inbounds nuw (i8, ptr @sapi_module, i64 232), align 8, !tbaa !254
  %9 = call i32 %8(i32 noundef 5, ptr noundef nonnull @.str.83, ptr noundef nonnull getelementptr inbounds nuw (i8, ptr @phpdbg_globals, i64 1344), i64 noundef %7, ptr noundef nonnull %2) #27
  %.not6 = icmp eq i32 %9, 0
  br i1 %.not6, label %12, label %10

10:                                               ; preds = %6
  %11 = load ptr, ptr getelementptr inbounds nuw (i8, ptr @phpdbg_globals, i64 1344), align 8, !tbaa !47
  call void @php_register_variable(ptr noundef nonnull @.str.83, ptr noundef %11, ptr noundef %0) #27
  br label %12

12:                                               ; preds = %10, %6
  %13 = load ptr, ptr getelementptr inbounds nuw (i8, ptr @sapi_module, i64 232), align 8, !tbaa !254
  %14 = load i64, ptr getelementptr inbounds nuw (i8, ptr @phpdbg_globals, i64 1352), align 8, !tbaa !67
  %15 = call i32 %13(i32 noundef 5, ptr noundef nonnull @.str.84, ptr noundef nonnull getelementptr inbounds nuw (i8, ptr @phpdbg_globals, i64 1344), i64 noundef %14, ptr noundef nonnull %2) #27
  %.not7 = icmp eq i32 %15, 0
  br i1 %.not7, label %18, label %16

16:                                               ; preds = %12
  %17 = load ptr, ptr getelementptr inbounds nuw (i8, ptr @phpdbg_globals, i64 1344), align 8, !tbaa !47
  call void @php_register_variable(ptr noundef nonnull @.str.84, ptr noundef %17, ptr noundef %0) #27
  br label %18

18:                                               ; preds = %16, %12
  %19 = load ptr, ptr getelementptr inbounds nuw (i8, ptr @sapi_module, i64 232), align 8, !tbaa !254
  %20 = load i64, ptr getelementptr inbounds nuw (i8, ptr @phpdbg_globals, i64 1352), align 8, !tbaa !67
  %21 = call i32 %19(i32 noundef 5, ptr noundef nonnull @.str.85, ptr noundef nonnull getelementptr inbounds nuw (i8, ptr @phpdbg_globals, i64 1344), i64 noundef %20, ptr noundef nonnull %2) #27
  %.not8 = icmp eq i32 %21, 0
  br i1 %.not8, label %24, label %22

22:                                               ; preds = %18
  %23 = load ptr, ptr getelementptr inbounds nuw (i8, ptr @phpdbg_globals, i64 1344), align 8, !tbaa !47
  call void @php_register_variable(ptr noundef nonnull @.str.85, ptr noundef %23, ptr noundef %0) #27
  br label %24

24:                                               ; preds = %22, %18
  %25 = load ptr, ptr getelementptr inbounds nuw (i8, ptr @sapi_module, i64 232), align 8, !tbaa !254
  %26 = load i64, ptr getelementptr inbounds nuw (i8, ptr @phpdbg_globals, i64 1352), align 8, !tbaa !67
  %27 = call i32 %25(i32 noundef 5, ptr noundef nonnull @.str.86, ptr noundef nonnull getelementptr inbounds nuw (i8, ptr @phpdbg_globals, i64 1344), i64 noundef %26, ptr noundef nonnull %2) #27
  %.not9 = icmp eq i32 %27, 0
  br i1 %.not9, label %30, label %28

28:                                               ; preds = %24
  %29 = load ptr, ptr getelementptr inbounds nuw (i8, ptr @phpdbg_globals, i64 1344), align 8, !tbaa !47
  call void @php_register_variable(ptr noundef nonnull @.str.86, ptr noundef %29, ptr noundef %0) #27
  br label %30

30:                                               ; preds = %24, %28, %1
  store i64 0, ptr %2, align 8, !tbaa !79
  %31 = load ptr, ptr getelementptr inbounds nuw (i8, ptr @sapi_module, i64 232), align 8, !tbaa !254
  %32 = call i32 %31(i32 noundef 5, ptr noundef nonnull @.str.87, ptr noundef nonnull %3, i64 noundef 0, ptr noundef nonnull %2) #27
  %.not10 = icmp eq i32 %32, 0
  br i1 %.not10, label %35, label %33

33:                                               ; preds = %30
  %34 = load ptr, ptr %3, align 8, !tbaa !78
  call void @php_register_variable(ptr noundef nonnull @.str.87, ptr noundef %34, ptr noundef %0) #27
  br label %35

35:                                               ; preds = %33, %30
  call void @llvm.lifetime.end.p0(i64 8, ptr nonnull %3) #27
  call void @llvm.lifetime.end.p0(i64 8, ptr nonnull %2) #27
  ret void
}